; Function Attrs: mustprogress nofree norecurse nosync nounwind memory(readwrite, inaccessiblemem: none) uwtable
define void @_ZN3gmx19StatePropagatorData12copyPositionEii(ptr nocapture noundef nonnull readonly align 8 dereferenceable(632) %0, i32 noundef %1, i32 noundef %2) local_unnamed_addr #18 align 2 {
  %4 = icmp slt i32 %1, %2
  br i1 %4, label %.lr.ph, label %._crit_edge

.lr.ph:                                           ; preds = %3
  %5 = getelementptr inbounds i8, ptr %0, i64 16
  %6 = getelementptr inbounds i8, ptr %0, i64 56
  %7 = sext i32 %1 to i64
  %wide.trip.count = sext i32 %2 to i64
  br label %8

8:                                                ; preds = %.lr.ph, %8
  %indvars.iv = phi i64 [ %7, %.lr.ph ], [ %indvars.iv.next, %8 ]
  %9 = load ptr, ptr %5, align 8
  %10 = getelementptr inbounds %"class.gmx::BasicVector", ptr %9, i64 %indvars.iv
  %11 = load ptr, ptr %6, align 8
  %12 = getelementptr inbounds %"class.gmx::BasicVector", ptr %11, i64 %indvars.iv
  tail call void @llvm.memcpy.p0.p0.i64(ptr noundef nonnull align 4 dereferenceable(12) %12, ptr noundef nonnull align 4 dereferenceable(12) %10, i64 12, i1 false)
  %indvars.iv.next = add nsw i64 %indvars.iv, 1
  %exitcond.not = icmp eq i64 %indvars.iv.next, %wide.trip.count
  br i1 %exitcond.not, label %._crit_edge, label %8, !llvm.loop !68

._crit_edge:                                      ; preds = %8, %3
  ret void
}